target datalayout = "e-m:e-p270:32:32-p271:32:32-p272:64:64-i64:64-i128:128-f80:128-n8:16:32:64-S128"
target triple = "x86_64-pc-linux-gnu"

; Function Attrs: mustprogress uwtable
define void @_ZN3zmq6trie_t5applyEPFvPhmPvES2_(ptr noundef nonnull align 8 dereferenceable(24) %0, ptr noundef %1, ptr noundef %2) #7 align 2 {
  %4 = alloca ptr, align 8
  %5 = alloca ptr, align 8
  %6 = alloca ptr, align 8
  %7 = alloca ptr, align 8
  store ptr %0, ptr %4, align 8, !tbaa !3
  store ptr %1, ptr %5, align 8, !tbaa !38
  store ptr %2, ptr %6, align 8, !tbaa !38
  %8 = load ptr, ptr %4, align 8
  call void @llvm.lifetime.start.p0(i64 8, ptr %7) #13
  store ptr null, ptr %7, align 8, !tbaa !21
  %9 = load ptr, ptr %5, align 8, !tbaa !38
  %10 = load ptr, ptr %6, align 8, !tbaa !38
  call void @_ZNK3zmq6trie_t12apply_helperEPPhmmPFvS1_mPvES3_(ptr noundef nonnull align 8 dereferenceable(24) %8, ptr noundef %7, i64 noundef 0, i64 noundef 0, ptr noundef %9, ptr noundef %10)
  %11 = load ptr, ptr %7, align 8, !tbaa !21
  call void @free(ptr noundef %11) #13
  call void @llvm.lifetime.end.p0(i64 8, ptr %7) #13
  ret void
}