; Function Attrs: mustprogress uwtable
define void @_ZN3zmq6trie_t5applyEPFvPhmPvES2_(ptr noundef nonnull readonly align 8 captures(none) dereferenceable(24) %0, ptr noundef readonly captures(none) %1, ptr noundef %2) local_unnamed_addr #9 align 2 {
  %4 = alloca ptr, align 8
  call void @llvm.lifetime.start.p0(i64 8, ptr nonnull %4) #18
  store ptr null, ptr %4, align 8, !tbaa !29
  call void @_ZNK3zmq6trie_t12apply_helperEPPhmmPFvS1_mPvES3_(ptr noundef nonnull align 8 dereferenceable(24) %0, ptr noundef nonnull %4, i64 noundef 0, i64 noundef 0, ptr noundef %1, ptr noundef %2)
  %5 = load ptr, ptr %4, align 8, !tbaa !29
  tail call void @free(ptr noundef %5) #18
  call void @llvm.lifetime.end.p0(i64 8, ptr nonnull %4) #18
  ret void
}